target datalayout = "e-m:e-p270:32:32-p271:32:32-p272:64:64-i64:64-i128:128-f80:128-n8:16:32:64-S128"
target triple = "x86_64-pc-linux-gnu"

@_ZN10Bookkeeper15use_new_var_cntE = dso_local global i32 0, align 4
@_ZN10Bookkeeper15use_old_var_cntE = dso_local global i32 0, align 4
@.str.58 = private unnamed_addr constant [43 x i8] c"percentage a fresh-made variable is used: \00", align 1
@.str.59 = private unnamed_addr constant [42 x i8] c"percentage an existing variable is used: \00", align 1

; Function Attrs: mustprogress uwtable
define dso_local void @_ZN10Bookkeeper20output_var_freshnessERSo(ptr noundef nonnull align 8 dereferenceable(8) %0) #5 align 2 {
  %2 = alloca ptr, align 8
  %3 = alloca i32, align 4
  store ptr %0, ptr %2, align 8, !tbaa !80
  call void @llvm.lifetime.start.p0(i64 4, ptr %3) #3
  %4 = load i32, ptr @_ZN10Bookkeeper15use_new_var_cntE, align 4, !tbaa !15
  %5 = load i32, ptr @_ZN10Bookkeeper15use_old_var_cntE, align 4, !tbaa !15
  %6 = add nsw i32 %4, %5
  store i32 %6, ptr %3, align 4, !tbaa !15
  %7 = load ptr, ptr %2, align 8, !tbaa !80
  %8 = load i32, ptr @_ZN10Bookkeeper15use_new_var_cntE, align 4, !tbaa !15
  %9 = sitofp i32 %8 to double
  %10 = fmul double %9, 1.000000e+02
  %11 = load i32, ptr %3, align 4, !tbaa !15
  %12 = sitofp i32 %11 to double
  %13 = fdiv double %10, %12
  call void @_ZL16formated_outputfRSoPKcd(ptr noundef nonnull align 8 dereferenceable(8) %7, ptr noundef @.str.58, double noundef %13)
  %14 = load ptr, ptr %2, align 8, !tbaa !80
  %15 = load i32, ptr @_ZN10Bookkeeper15use_old_var_cntE, align 4, !tbaa !15
  %16 = sitofp i32 %15 to double
  %17 = fmul double %16, 1.000000e+02
  %18 = load i32, ptr %3, align 4, !tbaa !15
  %19 = sitofp i32 %18 to double
  %20 = fdiv double %17, %19
  call void @_ZL16formated_outputfRSoPKcd(ptr noundef nonnull align 8 dereferenceable(8) %14, ptr noundef @.str.59, double noundef %20)
  call void @llvm.lifetime.end.p0(i64 4, ptr %3) #3
  ret void
}