; Function Attrs: mustprogress uwtable
define dso_local void @_ZN10Bookkeeper20output_var_freshnessERSo(ptr noundef nonnull align 8 dereferenceable(8) %0) local_unnamed_addr #6 align 2 {
  %2 = load i32, ptr @_ZN10Bookkeeper15use_new_var_cntE, align 4, !tbaa !12
  %3 = load i32, ptr @_ZN10Bookkeeper15use_old_var_cntE, align 4, !tbaa !12
  %4 = add nsw i32 %3, %2
  %5 = sitofp i32 %2 to double
  %6 = fmul double %5, 1.000000e+02
  %7 = sitofp i32 %4 to double
  %8 = fdiv double %6, %7
  tail call fastcc void @_ZL16formated_outputfRSoPKcd(ptr noundef nonnull align 8 dereferenceable(8) %0, ptr noundef nonnull @.str.58, double noundef %8)
  %9 = load i32, ptr @_ZN10Bookkeeper15use_old_var_cntE, align 4, !tbaa !12
  %10 = sitofp i32 %9 to double
  %11 = fmul double %10, 1.000000e+02
  %12 = fdiv double %11, %7
  tail call fastcc void @_ZL16formated_outputfRSoPKcd(ptr noundef nonnull align 8 dereferenceable(8) %0, ptr noundef nonnull @.str.59, double noundef %12)
  ret void
}